; Function Attrs: mustprogress uwtable
define void @_ZN3gmx15OptionsAssigner11appendValueERKNS_3AnyE(ptr noundef nonnull readonly align 8 captures(none) dereferenceable(8) %0, ptr noundef nonnull align 8 dereferenceable(8) %1) local_unnamed_addr #0 align 2 {
  %3 = load ptr, ptr %0, align 8, !tbaa !32
  %4 = getelementptr inbounds nuw i8, ptr %3, i64 40
  %5 = load ptr, ptr %4, align 8, !tbaa !26
  %.not = icmp eq ptr %5, null
  br i1 %.not, label %6, label %7

6:                                                ; preds = %2
  tail call void @_ZN3gmx8internal13assertHandlerEPKcS2_S2_S2_i(ptr noundef nonnull @.str.8, ptr noundef nonnull @.str.9, ptr noundef nonnull @"__PRETTY_FUNCTION__._ZZN3gmx15OptionsAssigner11appendValueERKNS_3AnyEENK3$_0clEv", ptr noundef nonnull @.str.1, i32 noundef 209) #20
  unreachable

7:                                                ; preds = %2
  %8 = getelementptr inbounds nuw i8, ptr %3, i64 48
  %9 = load i32, ptr %8, align 8, !tbaa !72
  %10 = add nsw i32 %9, 1
  store i32 %10, ptr %8, align 8, !tbaa !72
  tail call void @_ZN3gmx21AbstractOptionStorage11appendValueERKNS_3AnyE(ptr noundef nonnull align 8 dereferenceable(98) %5, ptr noundef nonnull align 8 dereferenceable(8) %1)
  ret void
}